; ModuleID = '57/3364.c'
source_filename = "57/3364.c"
target datalayout = "e-m:e-p270:32:32-p271:32:32-p272:64:64-i64:64-f80:128-n8:16:32:64-S128"
target triple = "x86_64-pc-linux-gnu"

@.str = private unnamed_addr constant [4 x i8] c"%d\0A\00", align 1
@.str.1 = private unnamed_addr constant [2 x i8] c"\0A\00", align 1

; Function Attrs: noinline nounwind uwtable
define dso_local i32 @su(i8* %0) #0 {
  %2 = alloca i8*, align 8
  %3 = alloca i32, align 4
  %4 = alloca i32, align 4
  store i8* %0, i8** %2, align 8
  %5 = load i8*, i8** %2, align 8
  %6 = call i64 @strlen(i8* %5) #3
  %7 = trunc i64 %6 to i32
  store i32 %7, i32* %3, align 4
  %8 = load i8*, i8** %2, align 8
  %9 = load i32, i32* %3, align 4
  %10 = sub nsw i32 %9, 1
  %11 = sext i32 %10 to i64
  %12 = getelementptr inbounds i8, i8* %8, i64 %11
  %13 = load i8, i8* %12, align 1
  %14 = sext i8 %13 to i32
  %15 = icmp eq i32 %14, 114
  br i1 %15, label %16, label %17

16:                                               ; preds = %1
  store i32 1, i32* %4, align 4
  br label %17

17:                                               ; preds = %16, %1
  %18 = load i8*, i8** %2, align 8
  %19 = load i32, i32* %3, align 4
  %20 = sub nsw i32 %19, 1
  %21 = sext i32 %20 to i64
  %22 = getelementptr inbounds i8, i8* %18, i64 %21
  %23 = load i8, i8* %22, align 1
  %24 = sext i8 %23 to i32
  %25 = icmp eq i32 %24, 121
  br i1 %25, label %26, label %27

26:                                               ; preds = %17
  store i32 2, i32* %4, align 4
  br label %27

27:                                               ; preds = %26, %17
  %28 = load i8*, i8** %2, align 8
  %29 = load i32, i32* %3, align 4
  %30 = sub nsw i32 %29, 1
  %31 = sext i32 %30 to i64
  %32 = getelementptr inbounds i8, i8* %28, i64 %31
  %33 = load i8, i8* %32, align 1
  %34 = sext i8 %33 to i32
  %35 = icmp eq i32 %34, 103
  br i1 %35, label %36, label %37

36:                                               ; preds = %27
  store i32 3, i32* %4, align 4
  br label %37

37:                                               ; preds = %36, %27
  %38 = load i32, i32* %4, align 4
  ret i32 %38
}

; Function Attrs: nounwind readonly
declare dso_local i64 @strlen(i8*) #1

; Function Attrs: noinline nounwind uwtable
define dso_local void @main() #0 {
  %1 = alloca i32, align 4
  %2 = alloca [100 x [100 x i8]], align 16
  %3 = alloca i32, align 4
  %4 = alloca i32, align 4
  %5 = alloca i32, align 4
  %6 = call i32 (i8*, ...) @__isoc99_scanf(i8* getelementptr inbounds ([4 x i8], [4 x i8]* @.str, i64 0, i64 0), i32* %1)
  store i32 0, i32* %3, align 4
  br label %7

7:                                                ; preds = %18, %0
  %8 = load i32, i32* %3, align 4
  %9 = load i32, i32* %1, align 4
  %10 = sub nsw i32 %9, 1
  %11 = icmp sle i32 %8, %10
  br i1 %11, label %12, label %21

12:                                               ; preds = %7
  %13 = load i32, i32* %3, align 4
  %14 = sext i32 %13 to i64
  %15 = getelementptr inbounds [100 x [100 x i8]], [100 x [100 x i8]]* %2, i64 0, i64 %14
  %16 = getelementptr inbounds [100 x i8], [100 x i8]* %15, i64 0, i64 0
  %17 = call i32 (i8*, ...) bitcast (i32 (...)* @gets to i32 (i8*, ...)*)(i8* %16)
  br label %18

18:                                               ; preds = %12
  %19 = load i32, i32* %3, align 4
  %20 = add nsw i32 %19, 1
  store i32 %20, i32* %3, align 4
  br label %7

21:                                               ; preds = %7
  store i32 0, i32* %4, align 4
  br label %22

22:                                               ; preds = %63, %21
  %23 = load i32, i32* %4, align 4
  %24 = load i32, i32* %1, align 4
  %25 = sub nsw i32 %24, 1
  %26 = icmp sle i32 %23, %25
  br i1 %26, label %27, label %66

27:                                               ; preds = %22
  %28 = load i32, i32* %4, align 4
  %29 = sext i32 %28 to i64
  %30 = getelementptr inbounds [100 x [100 x i8]], [100 x [100 x i8]]* %2, i64 0, i64 %29
  %31 = getelementptr inbounds [100 x i8], [100 x i8]* %30, i64 0, i64 0
  %32 = call i64 @strlen(i8* %31) #3
  %33 = trunc i64 %32 to i32
  store i32 %33, i32* %5, align 4
  %34 = load i32, i32* %4, align 4
  %35 = sext i32 %34 to i64
  %36 = getelementptr inbounds [100 x [100 x i8]], [100 x [100 x i8]]* %2, i64 0, i64 %35
  %37 = getelementptr inbounds [100 x i8], [100 x i8]* %36, i64 0, i64 0
  %38 = call i32 @su(i8* %37)
  %39 = icmp eq i32 %38, 3
  br i1 %39, label %40, label %48

40:                                               ; preds = %27
  %41 = load i32, i32* %4, align 4
  %42 = sext i32 %41 to i64
  %43 = getelementptr inbounds [100 x [100 x i8]], [100 x [100 x i8]]* %2, i64 0, i64 %42
  %44 = load i32, i32* %5, align 4
  %45 = sub nsw i32 %44, 3
  %46 = sext i32 %45 to i64
  %47 = getelementptr inbounds [100 x i8], [100 x i8]* %43, i64 0, i64 %46
  store i8 0, i8* %47, align 1
  br label %56

48:                                               ; preds = %27
  %49 = load i32, i32* %4, align 4
  %50 = sext i32 %49 to i64
  %51 = getelementptr inbounds [100 x [100 x i8]], [100 x [100 x i8]]* %2, i64 0, i64 %50
  %52 = load i32, i32* %5, align 4
  %53 = sub nsw i32 %52, 2
  %54 = sext i32 %53 to i64
  %55 = getelementptr inbounds [100 x i8], [100 x i8]* %51, i64 0, i64 %54
  store i8 0, i8* %55, align 1
  br label %56

56:                                               ; preds = %48, %40
  %57 = load i32, i32* %4, align 4
  %58 = sext i32 %57 to i64
  %59 = getelementptr inbounds [100 x [100 x i8]], [100 x [100 x i8]]* %2, i64 0, i64 %58
  %60 = getelementptr inbounds [100 x i8], [100 x i8]* %59, i64 0, i64 0
  %61 = call i32 @puts(i8* %60)
  %62 = call i32 (i8*, ...) @printf(i8* getelementptr inbounds ([2 x i8], [2 x i8]* @.str.1, i64 0, i64 0))
  br label %63

63:                                               ; preds = %56
  %64 = load i32, i32* %4, align 4
  %65 = add nsw i32 %64, 1
  store i32 %65, i32* %4, align 4
  br label %22

66:                                               ; preds = %22
  ret void
}

declare dso_local i32 @__isoc99_scanf(i8*, ...) #2

declare dso_local i32 @gets(...) #2

declare dso_local i32 @puts(i8*) #2

declare dso_local i32 @printf(i8*, ...) #2


!llvm.module.flags = !{!0}
!llvm.ident = !{!1}

!0 = !{i32 1, !"wchar_size", i32 4}
!1 = !{!"clang version 10.0.0-4ubuntu1 "}
